target datalayout = "e-m:e-p270:32:32-p271:32:32-p272:64:64-i64:64-i128:128-f80:128-n8:16:32:64-S128"
target triple = "x86_64-unknown-linux-gnu"

%class.tactic.base = type <{ %"class.user_propagator::core", i32 }>
%"class.user_propagator::core" = type { ptr }
%class.unary_tactical = type { %class.tactic.base, %class.ref }
%class.ref = type { ptr }
%class.tactic = type <{ %"class.user_propagator::core", i32, [4 x i8] }>

; Function Attrs: mustprogress nounwind uwtable
define linkonce_odr hidden void @_ZN6tactic7inc_refEv(ptr noundef nonnull align 8 dereferenceable(12) %this) #5 comdat align 2 {
entry:
  %this.addr = alloca ptr, align 8
  store ptr %this, ptr %this.addr, align 8
  %this1 = load ptr, ptr %this.addr, align 8
  %m_ref_count = getelementptr inbounds %class.tactic, ptr %this1, i32 0, i32 1
  %0 = load i32, ptr %m_ref_count, align 8
  %inc = add i32 %0, 1
  store i32 %inc, ptr %m_ref_count, align 8
  ret void
}

; Function Attrs: mustprogress nounwind uwtable
define linkonce_odr hidden void @_ZN15user_propagator4coreD2Ev(ptr noundef nonnull align 8 dereferenceable(8) %this) unnamed_addr #5 comdat align 2 {
entry:
  %this.addr = alloca ptr, align 8
  store ptr %this, ptr %this.addr, align 8
  ret void
}

; Function Attrs: mustprogress uwtable
define linkonce_odr hidden void @_ZN3refI6tacticE7inc_refEv(ptr noundef nonnull align 8 dereferenceable(8) %this) #4 comdat align 2 {
entry:
  %this.addr = alloca ptr, align 8
  store ptr %this, ptr %this.addr, align 8
  %this1 = load ptr, ptr %this.addr, align 8
  %m_ptr = getelementptr inbounds %class.ref, ptr %this1, i32 0, i32 0
  %0 = load ptr, ptr %m_ptr, align 8
  %tobool = icmp ne ptr %0, null
  br i1 %tobool, label %if.then, label %if.end

if.then:                                          ; preds = %entry
  %m_ptr2 = getelementptr inbounds %class.ref, ptr %this1, i32 0, i32 0
  %1 = load ptr, ptr %m_ptr2, align 8
  call void @_ZN6tactic7inc_refEv(ptr noundef nonnull align 8 dereferenceable(12) %1)
  br label %if.end

if.end:                                           ; preds = %if.then, %entry
  ret void
}

; Function Attrs: mustprogress nounwind uwtable
define linkonce_odr hidden void @_ZN15user_propagator4coreC2Ev(ptr noundef nonnull align 8 dereferenceable(8) %this) unnamed_addr #5 comdat align 2 {
entry:
  %this.addr = alloca ptr, align 8
  store ptr %this, ptr %this.addr, align 8
  %this1 = load ptr, ptr %this.addr, align 8
  store ptr getelementptr inbounds ({ [14 x ptr] }, ptr @_ZTVN15user_propagator4coreE, i32 0, i32 0, i32 2), ptr %this1, align 8
  ret void
}

; Function Attrs: mustprogress nounwind uwtable
define linkonce_odr hidden void @_ZN6tacticD2Ev(ptr noundef nonnull align 8 dereferenceable(12) %this) unnamed_addr #5 comdat align 2 {
entry:
  %this.addr = alloca ptr, align 8
  store ptr %this, ptr %this.addr, align 8
  %this1 = load ptr, ptr %this.addr, align 8
  call void @_ZN15user_propagator4coreD2Ev(ptr noundef nonnull align 8 dereferenceable(8) %this1) #3
  ret void
}

; Function Attrs: mustprogress uwtable
define linkonce_odr hidden void @_ZN3refI6tacticEC2EPS0_(ptr noundef nonnull align 8 dereferenceable(8) %this, ptr noundef %ptr) unnamed_addr #4 comdat align 2 {
entry:
  %this.addr = alloca ptr, align 8
  %ptr.addr = alloca ptr, align 8
  store ptr %this, ptr %this.addr, align 8
  store ptr %ptr, ptr %ptr.addr, align 8
  %this1 = load ptr, ptr %this.addr, align 8
  %m_ptr = getelementptr inbounds %class.ref, ptr %this1, i32 0, i32 0
  %0 = load ptr, ptr %ptr.addr, align 8
  store ptr %0, ptr %m_ptr, align 8
  call void @_ZN3refI6tacticE7inc_refEv(ptr noundef nonnull align 8 dereferenceable(8) %this1)
  ret void
}

; Function Attrs: mustprogress nounwind uwtable
define linkonce_odr hidden void @_ZN6tacticC2Ev(ptr noundef nonnull align 8 dereferenceable(12) %this) unnamed_addr #5 comdat align 2 {
entry:
  %this.addr = alloca ptr, align 8
  store ptr %this, ptr %this.addr, align 8
  %this1 = load ptr, ptr %this.addr, align 8
  call void @_ZN15user_propagator4coreC2Ev(ptr noundef nonnull align 8 dereferenceable(8) %this1) #3
  store ptr getelementptr inbounds ({ [25 x ptr] }, ptr @_ZTV6tactic, i32 0, i32 0, i32 2), ptr %this1, align 8
  %m_ref_count = getelementptr inbounds %class.tactic, ptr %this1, i32 0, i32 1
  store i32 0, ptr %m_ref_count, align 8
  ret void
}

; Function Attrs: mustprogress uwtable
define linkonce_odr hidden void @_ZN14unary_tacticalC2EP6tactic(ptr noundef nonnull align 8 dereferenceable(24) %this, ptr noundef %t) unnamed_addr #4 comdat align 2 personality ptr @__gxx_personality_v0 {
entry:
  %this.addr = alloca ptr, align 8
  %t.addr = alloca ptr, align 8
  %exn.slot = alloca ptr, align 8
  %ehselector.slot = alloca i32, align 4
  store ptr %this, ptr %this.addr, align 8
  store ptr %t, ptr %t.addr, align 8
  %this1 = load ptr, ptr %this.addr, align 8
  call void @_ZN6tacticC2Ev(ptr noundef nonnull align 8 dereferenceable(12) %this1)
  store ptr getelementptr inbounds ({ [25 x ptr] }, ptr @_ZTV14unary_tactical, i32 0, i32 0, i32 2), ptr %this1, align 8
  %m_t = getelementptr inbounds %class.unary_tactical, ptr %this1, i32 0, i32 1
  %0 = load ptr, ptr %t.addr, align 8
  invoke void @_ZN3refI6tacticEC2EPS0_(ptr noundef nonnull align 8 dereferenceable(8) %m_t, ptr noundef %0)
          to label %invoke.cont unwind label %lpad

invoke.cont:                                      ; preds = %entry
  ret void

lpad:                                             ; preds = %entry
  %1 = landingpad { ptr, i32 }
          cleanup
  %2 = extractvalue { ptr, i32 } %1, 0
  store ptr %2, ptr %exn.slot, align 8
  %3 = extractvalue { ptr, i32 } %1, 1
  store i32 %3, ptr %ehselector.slot, align 4
  call void @_ZN6tacticD2Ev(ptr noundef nonnull align 8 dereferenceable(12) %this1) #3
  br label %eh.resume

eh.resume:                                        ; preds = %lpad
  %exn = load ptr, ptr %exn.slot, align 8
  %sel = load i32, ptr %ehselector.slot, align 4
  %lpad.val = insertvalue { ptr, i32 } poison, ptr %exn, 0
  %lpad.val2 = insertvalue { ptr, i32 } %lpad.val, i32 %sel, 1
  resume { ptr, i32 } %lpad.val2
}

; Function Attrs: mustprogress uwtable
define linkonce_odr hidden void @_ZN21if_no_models_tacticalC2EP6tactic(ptr noundef nonnull align 8 dereferenceable(24) %this, ptr noundef %t) unnamed_addr #4 comdat align 2 {
entry:
  %this.addr = alloca ptr, align 8
  %t.addr = alloca ptr, align 8
  store ptr %this, ptr %this.addr, align 8
  store ptr %t, ptr %t.addr, align 8
  %this1 = load ptr, ptr %this.addr, align 8
  %0 = load ptr, ptr %t.addr, align 8
  call void @_ZN14unary_tacticalC2EP6tactic(ptr noundef nonnull align 8 dereferenceable(24) %this1, ptr noundef %0)
  store ptr getelementptr inbounds ({ [25 x ptr] }, ptr @_ZTV21if_no_models_tactical, i32 0, i32 0, i32 2), ptr %this1, align 8
  ret void
}

; Function Attrs: mustprogress uwtable
define hidden noundef ptr @_Z12if_no_modelsP6tactic(ptr noundef %t) #4 {
entry:
  %t.addr = alloca ptr, align 8
  store ptr %t, ptr %t.addr, align 8
  %call = call noalias noundef ptr @_ZN6memory8allocateEm(i64 noundef 24)
  %0 = load ptr, ptr %t.addr, align 8
  call void @_ZN21if_no_models_tacticalC2EP6tactic(ptr noundef nonnull align 8 dereferenceable(24) %call, ptr noundef %0)
  ret ptr %call
}